(lp0
I0
aI2971
aI2644
aI3056
aI2525
aI2818
aI2599
aI1875
aI745
aI3205
aI1551
aI2906
aI2394
aI1803
aI2942
aI1837
aI3111
aI2284
aI1044
aI2351
aI3630
aI4028
aI2650
aI3653
aI2249
aI2150
aI1222
aI2090
aI3540
aI2303
aI3455
aI3004
aI2551
aI2656
aI998
aI2236
aI2610
aI3548
aI1851
aI4091
aI2732
aI2040
aI3312
aI2142
aI3438
aI2937
aI2979
aI2757
aI2437
aI3152
aI2503
aI2817
aI2420
aI3369
aI2862
aI2609
aI2857
aI3668
aI2947
aI2592
aI1676
aI2573
aI2498
aI2047
aI826
aI3393
aI2535
aI4636
aI3650
aI743
aI1265
aI1539
aI3007
aI4286
aI2720
aI3220
aI2298
aI2795
aI2806
aI982
aI2976
aI2052
aI3997
aI2656
aI1193
aI2461
aI1608
aI3046
aI3261
aI2018
aI2786
aI647
aI3542
aI3415
aI2186
aI2398
aI4248
aI3515
aI2367
aI2970
aI3536
aI2478
aI1826
aI2551
aI3368
aI2303
aI2540
aI1169
aI3140
aI2317
aI2535
aI1759
aI1899
aI508
aI2399
aI3513
aI2597
aI2176
aI1090
aI2328
aI2818
aI1306
aI2805
aI2057
aI2618
aI1694
aI3285
aI1203
aI676
aI1820
aI1445
aI2468
aI2029
aI1257
aI1533
aI2417
aI3599
aI2494
aI4101
aI546
aI1889
aI2616
aI2141
aI2359
aI648
aI2682
aI3464
aI2873
aI3109
aI2183
aI4159
aI1832
aI2080
aI1831
aI2001
aI3013
aI2143
aI1376
aI1627
aI2403
aI4772
aI2556
aI2124
aI1693
aI2442
aI3814
aI2630
aI2038
aI2776
aI1365
aI3929
aI1990
aI2069
aI3558
aI1432
aI2279
aI3829
aI2435
aI3691
aI3027
aI2345
aI3807
aI2145
aI2703
aI2884
aI3806
aI1151
aI2505
aI2340
aI2596
aI4123
aI1737
aI3136
aI1073
aI1707
aI2417
aI3068
aI1724
aI815
aI2060
a.